; Function Attrs: nounwind uwtable
define internal i32 @be_filter_ctrl(ptr noundef readonly captures(none) %0, i32 noundef %1, ptr noundef %2) #0 {
  switch i32 %1, label %18 [
    i32 2, label %4
    i32 0, label %7
    i32 1, label %7
  ]

4:                                                ; preds = %3
  %5 = getelementptr inbounds nuw i8, ptr %0, i64 520
  %6 = load ptr, ptr %5, align 8
  store ptr %6, ptr %2, align 8
  br label %18

7:                                                ; preds = %3, %3
  %8 = getelementptr inbounds nuw i8, ptr %0, i64 520
  %9 = load ptr, ptr %8, align 8
  %.not = icmp eq ptr %9, null
  br i1 %.not, label %18, label %10

10:                                               ; preds = %7
  %11 = getelementptr inbounds nuw i8, ptr %9, i64 8
  %12 = load ptr, ptr %11, align 8
  %.not15 = icmp eq ptr %12, null
  br i1 %.not15, label %18, label %13

13:                                               ; preds = %10
  %14 = getelementptr inbounds nuw i8, ptr %12, i64 64
  %15 = load ptr, ptr %14, align 8
  %.not16 = icmp eq ptr %15, null
  br i1 %.not16, label %18, label %16

16:                                               ; preds = %13
  %17 = tail call i32 %15(ptr noundef nonnull %9, i32 noundef %1, ptr noundef %2) #3
  br label %18

18:                                               ; preds = %3, %7, %10, %13, %16, %4
  %.0 = phi i32 [ %17, %16 ], [ 0, %4 ], [ -1, %13 ], [ -1, %10 ], [ -1, %7 ], [ -1, %3 ]
  ret i32 %.0
}